; Function Attrs: nounwind uwtable
define void @dt_dev_pixelpipe_disable_before(ptr noundef readonly captures(none) %0, ptr noundef %1) local_unnamed_addr #0 {
  %3 = getelementptr inbounds nuw i8, ptr %0, i64 328
  %4 = load ptr, ptr %3, align 8, !tbaa !171
  br label %5

5:                                                ; preds = %11, %2
  %.09 = phi ptr [ %4, %2 ], [ %14, %11 ]
  %.0 = load ptr, ptr %.09, align 8, !tbaa !86
  %6 = load ptr, ptr %.0, align 16, !tbaa !88
  %7 = getelementptr inbounds nuw i8, ptr %6, i64 944
  %8 = load ptr, ptr %7, align 16, !tbaa !232
  %9 = getelementptr inbounds nuw i8, ptr %8, i64 496
  %10 = tail call i32 @g_strcmp0(ptr noundef nonnull %9, ptr noundef %1) #27
  %.not.i.not = icmp eq i32 %10, 0
  br i1 %.not.i.not, label %15, label %11

11:                                               ; preds = %5
  %12 = getelementptr inbounds nuw i8, ptr %.0, i64 32
  store i32 0, ptr %12, align 16, !tbaa !202
  %13 = getelementptr inbounds nuw i8, ptr %.09, i64 8
  %14 = load ptr, ptr %13, align 8, !tbaa !218
  %.not11 = icmp eq ptr %14, null
  br i1 %.not11, label %15, label %5

15:                                               ; preds = %11, %5
  ret void
}